(lp1
(dp2
S'service'
p3
S'D:\\Scripts\\CrediteScitech\\app/static/media/profession\\service.png'
p4
sS'name'
p5
V\u533b\u5b66\u533b\u836f
p6
sS'english_name'
p7
S'MEDICAL AND MEDICINE'
p8
sS'introduction'
p9
(lp10
V\u6211\u4eec\u7684\u7ffb\u8bd1\u56e2\u961f\u4e0d\u4ec5\u6709\u82f1\u8bed\u4e13\u4e1a\u8bd1\u8005\uff0c\u800c\u4e14\u6709\u5177\u5907\u533b\u5b66\u3001\u836f\u5b66\u3001\u751f\u7269\u5b66\u5b66\u672f\u80cc\u666f\u7684\u4e13\u4e1a\u4eba\u624d\uff0c\u4ed6\u4eec\u6709\u7262\u56fa\u7684\u5b66\u672f\u57fa\u7840\u53ca\u826f\u597d\u7684\u8bed\u8a00\u9a7e\u9a6d\u80fd\u529b\uff0c\u5177\u5907SCI\u8bba\u6587\u5199\u4f5c\u3001\u6295\u7a3f\u53ca\u53d1\u8868\u7ecf\u9a8c\uff0c\u65e8\u5728\u63d0\u4f9b\u4e13\u4e1a\u7684\u533b\u5b66\u7ffb\u8bd1\u3001\u836f\u5b66\u7ffb\u8bd1\u3001\u533b\u7597\u5668\u68b0\u6ce8\u518c\u3001\u836f\u54c1\u6ce8\u518c\u7b49\u9886\u57df\u7684\u4e13\u4e1a\u7ffb\u8bd1\u670d\u52a1\u3002\u8d44\u6df1\u7ffb\u8bd1\u4eba\u5458\u65e2\u80fd\u7ffb\u8bd1\u533b\u5b66\u7c7b\u4e13\u4e1a\u6587\u732e\uff0c\u53c8\u7cbe\u901aSCI\u8bba\u6587\u3001\u5b66\u751f\u6bd5\u4e1a\u53ca\u804c\u79f0\u664b\u5347\u6240\u9700\u8bba\u6587\u7684\u5199\u4f5c\u53ca\u6295\u7a3f\u5de5\u4f5c\u3002\u5230\u76ee\u524d\u4e3a\u6b62\uff0c\u542f\u4fe1\u79d1\u6280\u533b\u5b66\u7ffb\u8bd1\u56e2\u961f\u7d2f\u79ef\u7ffb\u8bd1\u5b57\u6570\u8fbe\u767e\u4e07\u5b57\uff0c\u5e2e\u52a9\u53d1\u8868\u8bba\u6587\u5f71\u54cd\u56e0\u5b50\u7d2f\u79ef400\u591a\u5206
p11
asS'items'
p12
(lp13
(dp14
S'content'
p15
V\u542f\u4fe1\u79d1\u6280\u7684\u8bd1\u5458\u90fd\u5177\u6709\u5236\u836f\u884c\u4e1a\u7684\u76f8\u5173\u80cc\u666f\uff0c\u4e86\u89e3\u5236\u836f\u9879\u76ee\u7684\u7a0b\u5e8f,\u719f\u6089\u76f8\u5173\u77e5\u8bc6,\u4ece\u800c\u5728\u5404\u4e2a\u73af\u8282\u90fd\u80fd\u66f4\u597d\u5730\u5de5\u4f5c
p16
sS'url'
p17
S''
sS'title'
p18
V\u5236\u836f
p19
sS'icon'
p20
S'\\e9f4'
p21
sa(dp22
g15
V\u542f\u4fe1\u79d1\u6280\u4e13\u6ce8\u533b\u5b66\u8bba\u6587\u7ffb\u8bd1\uff0c\u6e05\u534e\u533b\u836f\u5b66\u535a\u58eb\u62c5\u5f53\u521d\u8bd1\uff0c\u5916\u7c4d\u8bed\u8a00\u4e13\u5bb6\u6df1\u5ea6\u6da6\u8272\uff0c\u662f\u60a8\u8bba\u6587\u53d1\u8868\u7684\u4e0d\u4e8c\u4e4b\u9009
p23
sg17
S''
sg18
V\u533b\u5b66\u8bba\u6587\u7ffb\u8bd1
p24
sg20
S'\\e607'
p25
sa(dp26
g15
V\u542f\u4fe1\u79d1\u6280\u5728\u75c5\u4f8b\u7ffb\u8bd1\u65b9\u9762\u7ecf\u9a8c\u4e30\u5bcc\uff0c\u80fd\u591f\u786e\u4fdd\u75c5\u4f8b\u7ffb\u8bd1\u4e13\u4e1a\u3001\u51c6\u786e\u3001\u89c4\u8303
p27
sg17
S''
sg18
V\u75c5\u4f8b\u7ffb\u8bd1
p28
sg20
S'\\e949'
p29
sa(dp30
g15
V\u542f\u4fe1\u79d1\u6280\u62e5\u6709\u5927\u91cf\u533b\u836f\u5b66\u7855\u535a\u7814\u7a76\u751f\u62c5\u4efb\u7279\u7ea6\u7ffb\u8bd1\uff0c\u5728\u533b\u836f\u5b66\u6587\u732e\u7ffb\u8bd1\u7684\u4e13\u4e1a\u6027\u65b9\u9762\u5168\u56fd\u9886\u5148\uff0c\u65e5\u7ffb\u8bd1\u91cf\u8d85\u8fc710\u4e07\u5b57\uff0c\u8fdc\u80dc\u4e00\u822c\u540c\u884c
p31
sg17
S''
sg18
V\u533b\u836f\u6587\u732e\u7ffb\u8bd1
p32
sg20
S'\\e9dd'
p33
sa(dp34
g15
V\u542f\u4fe1\u79d1\u6280\u7684\u8bd1\u5458\u4e2d\u6709\u5f88\u591a\u533b\u836f\u5b66\u4e13\u4e1a\u7684\u7855\u535a\u7814\u7a76\u751f\uff0c\u533b\u5b66\u77e5\u8bc6\u624e\u5b9e\uff0c\u8bed\u8a00\u529f\u5e95\u6df1\u539a\uff0c\u5b8c\u5168\u53ef\u4ee5\u786e\u4fdd\u68c0\u67e5\u62a5\u544a\u7ffb\u8bd1\u7684\u51c6\u786e\u6027
p35
sg17
S''
sg18
V\u68c0\u67e5\u62a5\u544a\u7ffb\u8bd1
p36
sg20
S'\\e668'
p37
sa(dp38
g15
V\u533b\u7597\u5668\u68b0\u7ffb\u8bd1\u9700\u8981\u8bd1\u8005\u638c\u63e1\u76f8\u5173\u4e13\u4e1a\u77e5\u8bc6\uff0c\u719f\u6089\u884c\u4e1a\u80cc\u666f\uff0c\u542f\u4fe1\u79d1\u6280\u7cbe\u9009\u533b\u7597\u5668\u68b0\u9886\u57df\u7684\u4e13\u4e1a\u8bd1\u8005\uff0c\u4e3a\u5ba2\u6237\u5448\u73b0\u6700\u4e13\u4e1a\u7684\u5b66\u672f\u7ffb\u8bd1
p39
sg17
S''
sg18
V\u533b\u7597\u5668\u68b0\u7ffb\u8bd1
p40
sg20
S'\\e989'
p41
sasS'advantage'
p42
S'D:\\Scripts\\CrediteScitech\\app/static/media/profession\\advantage-1.png'
p43
sS'id'
p44
I0
sS'example'
p45
(dp46
S'img'
p47
S'D:\\Scripts\\CrediteScitech\\app/static/media/profession\\example-1.png'
p48
sg18
V\u9898\u4e3a\u300a\u7ec6\u80de\u8d28RNA\u4e0e\u57fa\u56e0\u68c0\u6d4b\u300b\u7684\u82f1\u8bed\u8bba\u6587\u7ffb\u8bd1
p49
ssa(dp50
g3
S'D:\\Scripts\\CrediteScitech\\app/static/media/profession\\service.png'
p51
sg5
V\u673a\u68b0\u7535\u5b50
p52
sg7
S'MECHANICAL & ELECTRONICS'
p53
sg9
(lp54
V\u542f\u4fe1\u79d1\u6280\u673a\u68b0\u7535\u5b50\u7ffb\u8bd1\u7ec4\u7279\u8058\u6e05\u534e\u3001\u5317\u5927\u7b49\u8457\u540d\u9662\u6821\u7684\u9ad8\u6750\u751f\u62c5\u5f53\u82f1\u8bd1\u4e2d\u79d1\u6280\u6587\u732e\u7684\u521d\u8bd1\u4ee5\u53ca\u82f1\u8bed\u8bba\u6587\u7684\u4e13\u4e1a\u672f\u8bed\u5ba1\u6821\uff0c\u7528\u9876\u5c16\u4e13\u4e1a\u4eba\u624d\u626b\u9664\u673a\u68b0\u7535\u5b50\u7ffb\u8bd1\u7684\u4e00\u5207\u76f2\u70b9\u3002
p55
aV\u6211\u4eec\u613f\u4e3a\u6bcf\u4e00\u4f4d\u5ba2\u6237\u63d0\u4f9b\u8d28\u91cf\u6700\u9ad8\u3001\u901f\u5ea6\u6700\u5feb\u7684\u673a\u68b0\u7535\u5b50\u7ffb\u8bd1\u4ee5\u53ca\u672c\u5730\u5316\u670d\u52a1\uff0c\u4f9d\u9760\u4e25\u683c\u7684\u8d28\u91cf\u63a7\u5236\u4f53\u7cfb\u3001\u89c4\u8303\u5316\u7684\u8fd0\u4f5c\u6d41\u7a0b\u548c\u72ec\u7279\u7684\u5ba1\u6838\u6807\u51c6\uff0c\u6211\u4eec\u5df2\u7ecf\u4e3a\u4f17\u591a\u516c\u53f8\u4f01\u4e1a\u3001\u653f\u5e9c\u673a\u6784\u3001\u79d1\u7814\u5355\u4f4d\u63d0\u4f9b\u4e86\u9ad8\u6c34\u51c6\u7684\u673a\u68b0\u7535\u5b50\u7ffb\u8bd1\uff0c\u5e76\u7b7e\u8ba2\u4e86\u957f\u671f\u5408\u4f5c\u534f\u8bae\u3002
p56
asg12
(lp57
(dp58
g15
V\u542f\u4fe1\u79d1\u6280\u7684\u8bd1\u5458\u90fd\u5177\u6709\u673a\u68b0\u5236\u9020\u4e1a\u7684\u76f8\u5173\u80cc\u666f\uff0c\u4e86\u89e3 \u673a\u68b0\u5236\u9020\u7a0b\u5e8f,\u719f\u6089\u76f8\u5173\u77e5\u8bc6,\u4ece\u800c\u5728\u5404\u4e2a\u73af\u8282\u90fd\u80fd\u66f4\u597d\u5730\u5de5\u4f5c
p59
sg17
S''
sg18
V\u673a\u68b0\u5236\u9020\u7ffb\u8bd1
p60
sg20
S'\\ea74'
p61
sa(dp62
g15
V\u542f\u4fe1\u79d1\u6280\u4e13\u6ce8\u673a\u68b0\u7535\u5b50\u8bba\u6587\u7ffb\u8bd1\uff0c\u7531\u76f8\u5173\u4e13\u4e1a\u535a\u58eb\u62c5\u5f53\u521d\u8bd1\uff0c\u5916\u7c4d\u8bed\u8a00\u4e13\u5bb6\u6df1\u5ea6\u6da6\u8272\uff0c\u662f\u60a8\u8bba\u6587\u53d1\u8868\u7684\u4e0d\u4e8c\u4e4b\u9009
p63
sg17
S''
sg18
V\u673a\u68b0\u7535\u5b50\u8bba\u6587\u7ffb\u8bd1
p64
sg20
g25
sa(dp65
g15
V\u542f\u4fe1\u79d1\u6280\u5728\u6280\u672f\u8bf4\u660e\u4e66\u7ffb\u8bd1\u65b9\u9762\u7ecf\u9a8c\u4e30\u5bcc\uff0c\u80fd\u591f\u786e\u4fdd\u6280\u672f\u8bf4\u660e\u4e66\u7ffb\u8bd1\u4e13\u4e1a\u3001\u51c6\u786e\u3001\u89c4\u8303
p66
sg17
S''
sg18
V\u6280\u672f\u8bf4\u660e\u4e66\u7ffb\u8bd1
p67
sg20
g29
sa(dp68
g15
V\u542f\u4fe1\u79d1\u6280\u62e5\u6709\u5927\u91cf\u673a\u68b0\u7535\u5b50\u4e13\u4e1a\u7855\u535a\u7814\u7a76\u751f\u62c5\u4efb\u7279\u7ea6\u7ffb\u8bd1\uff0c\u5728\u6587\u732e\u7ffb\u8bd1\u7684\u4e13\u4e1a\u6027\u65b9\u9762\u5168\u56fd\u9886\u5148\uff0c\u65e5\u7ffb\u8bd1\u91cf\u8d85\u8fc710\u4e07\u5b57\uff0c\u8fdc\u80dc\u4e00\u822c\u540c\u884c
p69
sg17
S''
sg18
V\u673a\u68b0\u7535\u5b50\u6587\u732e\u7ffb\u8bd1
p70
sg20
g33
sa(dp71
g15
V\u542f\u4fe1\u79d1\u6280\u4e0e\u5168\u56fd\u591a\u5bb6\u77e5\u8bc6\u4ea7\u6743\u516c\u53f8\u5408\u4f5c\uff0c\u7531\u719f\u6089\u4e13\u5229\u6587\u4ef6\u5199\u4f5c\u7684\u8bd1\u8005\u63d0\u4f9b\u4e13\u5229\u6587\u4ef6\u7ffb\u8bd1\uff0c\u4fdd\u8bc1\u7ffb\u8bd1\u8bed\u8a00\u7b26\u5408\u4e13\u5229\u6587\u4ef6\u89c4\u8303
p72
sg17
S''
sg18
V\u673a\u68b0\u7535\u5b50\u7c7b\u4e13\u5229\u7ffb\u8bd1
p73
sg20
g37
sa(dp74
g15
V\u4eea\u5668\u4eea\u8868\u7ffb\u8bd1\u9700\u8981\u8bd1\u8005\u638c\u63e1\u76f8\u5173\u4e13\u4e1a\u77e5\u8bc6\uff0c\u719f\u6089\u884c\u4e1a\u80cc\u666f\uff0c\u542f\u4fe1\u79d1\u6280\u7cbe\u9009\u4eea\u5668\u4eea\u8868\u9886\u57df\u7684\u4e13\u4e1a\u8bd1\u8005\uff0c\u4e3a\u5ba2\u6237\u5448\u73b0\u6700\u4e13\u4e1a\u7684\u5b66\u672f\u7ffb\u8bd1
p75
sg17
S''
sg18
V\u4eea\u5668\u4eea\u8868\u7ffb\u8bd1
p76
sg20
g41
sasg42
S'D:\\Scripts\\CrediteScitech\\app/static/media/profession\\advantage-1.png'
p77
sg44
I1
sg45
(dp78
g47
S'D:\\Scripts\\CrediteScitech\\app/static/media/profession\\example-1.png'
p79
sg18
g49
ssa.